; Function Attrs: mustprogress uwtable
define void @_ZN8facebook5velox4exec7ExprSet19clearSharedSubexprsEv(ptr nocapture noundef nonnull readonly align 8 dereferenceable(200) %this) local_unnamed_addr #3 align 2 {
entry:
  %toReset_ = getelementptr inbounds i8, ptr %this, i64 112
  %0 = load ptr, ptr %toReset_, align 8
  %_M_finish.i = getelementptr inbounds i8, ptr %this, i64 120
  %1 = load ptr, ptr %_M_finish.i, align 8
  %cmp.i.not4 = icmp eq ptr %0, %1
  br i1 %cmp.i.not4, label %for.end, label %for.body

for.body:                                         ; preds = %entry, %for.body
  %__begin2.sroa.0.05 = phi ptr [ %incdec.ptr.i, %for.body ], [ %0, %entry ]
  %2 = load ptr, ptr %__begin2.sroa.0.05, align 8
  %vtable = load ptr, ptr %2, align 8
  %vfn = getelementptr inbounds i8, ptr %vtable, i64 32
  %3 = load ptr, ptr %vfn, align 8
  tail call void %3(ptr noundef nonnull align 8 dereferenceable(442) %2)
  %incdec.ptr.i = getelementptr inbounds i8, ptr %__begin2.sroa.0.05, i64 16
  %cmp.i.not = icmp eq ptr %incdec.ptr.i, %1
  br i1 %cmp.i.not, label %for.end, label %for.body

for.end:                                          ; preds = %for.body, %entry
  ret void
}